target datalayout = "e-m:e-p270:32:32-p271:32:32-p272:64:64-i64:64-i128:128-f80:128-n8:16:32:64-S128"
target triple = "x86_64-pc-linux-gnu"

%"class.draco::DecoderBuffer" = type <{ ptr, i64, i64, %"class.draco::DecoderBuffer::BitDecoder", i8, i8, i16, [4 x i8] }>
%"class.draco::DecoderBuffer::BitDecoder" = type { ptr, ptr, i64 }

; Function Attrs: mustprogress nounwind uwtable
define linkonce_odr noundef zeroext i1 @_ZN5draco13DecoderBuffer4PeekImEEbPT_(ptr noundef nonnull align 8 dereferenceable(52) %0, ptr noundef %1) #5 comdat align 2 {
  %3 = alloca i1, align 1
  %4 = alloca ptr, align 8
  %5 = alloca ptr, align 8
  %6 = alloca i64, align 8
  %7 = alloca i32, align 4
  store ptr %0, ptr %4, align 8, !tbaa !3
  store ptr %1, ptr %5, align 8, !tbaa !23
  %8 = load ptr, ptr %4, align 8
  call void @llvm.lifetime.start.p0(i64 8, ptr %6) #3
  store i64 8, ptr %6, align 8, !tbaa !20
  %9 = getelementptr inbounds nuw %"class.draco::DecoderBuffer", ptr %8, i32 0, i32 1
  %10 = load i64, ptr %9, align 8, !tbaa !15
  %11 = getelementptr inbounds nuw %"class.draco::DecoderBuffer", ptr %8, i32 0, i32 2
  %12 = load i64, ptr %11, align 8, !tbaa !16
  %13 = add i64 %12, 8
  %14 = icmp slt i64 %10, %13
  br i1 %14, label %15, label %16

15:                                               ; preds = %2
  store i1 false, ptr %3, align 1
  store i32 1, ptr %7, align 4
  br label %23

16:                                               ; preds = %2
  %17 = load ptr, ptr %5, align 8, !tbaa !23
  %18 = getelementptr inbounds nuw %"class.draco::DecoderBuffer", ptr %8, i32 0, i32 0
  %19 = load ptr, ptr %18, align 8, !tbaa !8
  %20 = getelementptr inbounds nuw %"class.draco::DecoderBuffer", ptr %8, i32 0, i32 2
  %21 = load i64, ptr %20, align 8, !tbaa !16
  %22 = getelementptr inbounds i8, ptr %19, i64 %21
  call void @llvm.memcpy.p0.p0.i64(ptr align 8 %17, ptr align 1 %22, i64 8, i1 false)
  store i1 true, ptr %3, align 1
  store i32 1, ptr %7, align 4
  br label %23

23:                                               ; preds = %16, %15
  call void @llvm.lifetime.end.p0(i64 8, ptr %6) #3
  %24 = load i1, ptr %3, align 1
  ret i1 %24
}

; Function Attrs: inlinehint mustprogress nounwind uwtable
define linkonce_odr void @_ZN5draco13DecoderBuffer10BitDecoder5resetEPKvm(ptr noundef nonnull align 8 dereferenceable(24) %0, ptr noundef %1, i64 noundef %2) #6 comdat align 2 {
  %4 = alloca ptr, align 8
  %5 = alloca ptr, align 8
  %6 = alloca i64, align 8
  store ptr %0, ptr %4, align 8, !tbaa !27
  store ptr %1, ptr %5, align 8, !tbaa !29
  store i64 %2, ptr %6, align 8, !tbaa !20
  %7 = load ptr, ptr %4, align 8
  %8 = getelementptr inbounds nuw %"class.draco::DecoderBuffer::BitDecoder", ptr %7, i32 0, i32 2
  store i64 0, ptr %8, align 8, !tbaa !30
  %9 = load ptr, ptr %5, align 8, !tbaa !29
  %10 = getelementptr inbounds nuw %"class.draco::DecoderBuffer::BitDecoder", ptr %7, i32 0, i32 0
  store ptr %9, ptr %10, align 8, !tbaa !31
  %11 = getelementptr inbounds nuw %"class.draco::DecoderBuffer::BitDecoder", ptr %7, i32 0, i32 0
  %12 = load ptr, ptr %11, align 8, !tbaa !31
  %13 = load i64, ptr %6, align 8, !tbaa !20
  %14 = getelementptr inbounds nuw i8, ptr %12, i64 %13
  %15 = getelementptr inbounds nuw %"class.draco::DecoderBuffer::BitDecoder", ptr %7, i32 0, i32 1
  store ptr %14, ptr %15, align 8, !tbaa !32
  ret void
}

; Function Attrs: mustprogress nounwind uwtable
define linkonce_odr noundef i64 @_ZNK5draco13DecoderBuffer14remaining_sizeEv(ptr noundef nonnull align 8 dereferenceable(52) %0) #5 comdat align 2 {
  %2 = alloca ptr, align 8
  store ptr %0, ptr %2, align 8, !tbaa !3
  %3 = load ptr, ptr %2, align 8
  %4 = getelementptr inbounds nuw %"class.draco::DecoderBuffer", ptr %3, i32 0, i32 1
  %5 = load i64, ptr %4, align 8, !tbaa !15
  %6 = getelementptr inbounds nuw %"class.draco::DecoderBuffer", ptr %3, i32 0, i32 2
  %7 = load i64, ptr %6, align 8, !tbaa !16
  %8 = sub nsw i64 %5, %7
  ret i64 %8
}

; Function Attrs: mustprogress nounwind uwtable
define linkonce_odr noundef ptr @_ZNK5draco13DecoderBuffer9data_headEv(ptr noundef nonnull align 8 dereferenceable(52) %0) #5 comdat align 2 {
  %2 = alloca ptr, align 8
  store ptr %0, ptr %2, align 8, !tbaa !3
  %3 = load ptr, ptr %2, align 8
  %4 = getelementptr inbounds nuw %"class.draco::DecoderBuffer", ptr %3, i32 0, i32 0
  %5 = load ptr, ptr %4, align 8, !tbaa !8
  %6 = getelementptr inbounds nuw %"class.draco::DecoderBuffer", ptr %3, i32 0, i32 2
  %7 = load i64, ptr %6, align 8, !tbaa !16
  %8 = getelementptr inbounds i8, ptr %5, i64 %7
  ret ptr %8
}

; Function Attrs: mustprogress uwtable
define linkonce_odr noundef zeroext i1 @_ZN5draco12DecodeVarintImEEbPT_PNS_13DecoderBufferE(ptr noundef %0, ptr noundef %1) #4 comdat {
  %3 = alloca i1, align 1
  %4 = alloca ptr, align 8
  %5 = alloca ptr, align 8
  store ptr %0, ptr %4, align 8, !tbaa !23
  store ptr %1, ptr %5, align 8, !tbaa !3
  %6 = load ptr, ptr %4, align 8, !tbaa !23
  %7 = load ptr, ptr %5, align 8, !tbaa !3
  %8 = call noundef zeroext i1 @_ZN5draco12_GLOBAL__N_120DecodeVarintUnsignedImEEbiPT_PNS_13DecoderBufferE(i32 noundef 1, ptr noundef %6, ptr noundef %7)
  br i1 %8, label %10, label %9

9:                                                ; preds = %2
  store i1 false, ptr %3, align 1
  br label %11

10:                                               ; preds = %2
  store i1 true, ptr %3, align 1
  br label %11

11:                                               ; preds = %10, %9
  %12 = load i1, ptr %3, align 1
  ret i1 %12
}

; Function Attrs: mustprogress uwtable
define linkonce_odr noundef zeroext i1 @_ZN5draco13DecoderBuffer6DecodeImEEbPT_(ptr noundef nonnull align 8 dereferenceable(52) %0, ptr noundef %1) #4 comdat align 2 {
  %3 = alloca i1, align 1
  %4 = alloca ptr, align 8
  %5 = alloca ptr, align 8
  store ptr %0, ptr %4, align 8, !tbaa !3
  store ptr %1, ptr %5, align 8, !tbaa !23
  %6 = load ptr, ptr %4, align 8
  %7 = load ptr, ptr %5, align 8, !tbaa !23
  %8 = call noundef zeroext i1 @_ZN5draco13DecoderBuffer4PeekImEEbPT_(ptr noundef nonnull align 8 dereferenceable(52) %6, ptr noundef %7)
  br i1 %8, label %10, label %9

9:                                                ; preds = %2
  store i1 false, ptr %3, align 1
  br label %14

10:                                               ; preds = %2
  %11 = getelementptr inbounds nuw %"class.draco::DecoderBuffer", ptr %6, i32 0, i32 2
  %12 = load i64, ptr %11, align 8, !tbaa !16
  %13 = add i64 %12, 8
  store i64 %13, ptr %11, align 8, !tbaa !16
  store i1 true, ptr %3, align 1
  br label %14

14:                                               ; preds = %10, %9
  %15 = load i1, ptr %3, align 1
  ret i1 %15
}

; Function Attrs: mustprogress uwtable
define noundef zeroext i1 @_ZN5draco13DecoderBuffer16StartBitDecodingEbPm(ptr noundef nonnull align 8 dereferenceable(52) %0, i1 noundef zeroext %1, ptr noundef %2) #4 align 2 {
  %4 = alloca i1, align 1
  %5 = alloca ptr, align 8
  %6 = alloca i8, align 1
  %7 = alloca ptr, align 8
  store ptr %0, ptr %5, align 8, !tbaa !3
  %8 = zext i1 %1 to i8
  store i8 %8, ptr %6, align 1, !tbaa !22
  store ptr %2, ptr %7, align 8, !tbaa !23
  %9 = load ptr, ptr %5, align 8
  %10 = load i8, ptr %6, align 1, !tbaa !22, !range !25, !noundef !26
  %11 = trunc i8 %10 to i1
  br i1 %11, label %12, label %28

12:                                               ; preds = %3
  %13 = getelementptr inbounds nuw %"class.draco::DecoderBuffer", ptr %9, i32 0, i32 6
  %14 = load i16, ptr %13, align 2, !tbaa !18
  %15 = zext i16 %14 to i32
  %16 = icmp slt i32 %15, 514
  br i1 %16, label %17, label %22

17:                                               ; preds = %12
  %18 = load ptr, ptr %7, align 8, !tbaa !23
  %19 = call noundef zeroext i1 @_ZN5draco13DecoderBuffer6DecodeImEEbPT_(ptr noundef nonnull align 8 dereferenceable(52) %9, ptr noundef %18)
  br i1 %19, label %21, label %20

20:                                               ; preds = %17
  store i1 false, ptr %4, align 1
  br label %33

21:                                               ; preds = %17
  br label %27

22:                                               ; preds = %12
  %23 = load ptr, ptr %7, align 8, !tbaa !23
  %24 = call noundef zeroext i1 @_ZN5draco12DecodeVarintImEEbPT_PNS_13DecoderBufferE(ptr noundef %23, ptr noundef %9)
  br i1 %24, label %26, label %25

25:                                               ; preds = %22
  store i1 false, ptr %4, align 1
  br label %33

26:                                               ; preds = %22
  br label %27

27:                                               ; preds = %26, %21
  br label %28

28:                                               ; preds = %27, %3
  %29 = getelementptr inbounds nuw %"class.draco::DecoderBuffer", ptr %9, i32 0, i32 4
  store i8 1, ptr %29, align 8, !tbaa !17
  %30 = getelementptr inbounds nuw %"class.draco::DecoderBuffer", ptr %9, i32 0, i32 3
  %31 = call noundef ptr @_ZNK5draco13DecoderBuffer9data_headEv(ptr noundef nonnull align 8 dereferenceable(52) %9)
  %32 = call noundef i64 @_ZNK5draco13DecoderBuffer14remaining_sizeEv(ptr noundef nonnull align 8 dereferenceable(52) %9)
  call void @_ZN5draco13DecoderBuffer10BitDecoder5resetEPKvm(ptr noundef nonnull align 8 dereferenceable(24) %30, ptr noundef %31, i64 noundef %32)
  store i1 true, ptr %4, align 1
  br label %33

33:                                               ; preds = %28, %25, %20
  %34 = load i1, ptr %4, align 1
  ret i1 %34
}