; Function Attrs: mustprogress nofree nosync nounwind memory(read, argmem: readwrite, inaccessiblemem: none) uwtable
define noundef zeroext i1 @_ZN5draco13DecoderBuffer16StartBitDecodingEbPm(ptr noundef nonnull align 8 captures(none) dereferenceable(52) %0, i1 noundef zeroext %1, ptr noundef captures(none) %2) local_unnamed_addr #5 align 2 {
  br i1 %1, label %4, label %21

4:                                                ; preds = %3
  %5 = getelementptr inbounds nuw i8, ptr %0, i64 50
  %6 = load i16, ptr %5, align 2, !tbaa !13
  %7 = icmp ult i16 %6, 514
  br i1 %7, label %8, label %19

8:                                                ; preds = %4
  %9 = getelementptr inbounds nuw i8, ptr %0, i64 8
  %10 = load i64, ptr %9, align 8, !tbaa !15
  %11 = getelementptr inbounds nuw i8, ptr %0, i64 16
  %12 = load i64, ptr %11, align 8, !tbaa !16
  %13 = add i64 %12, 8
  %.not = icmp slt i64 %10, %13
  br i1 %.not, label %_ZN5draco13DecoderBuffer6DecodeImEEbPT_.exit, label %_ZN5draco13DecoderBuffer6DecodeImEEbPT_.exit.thread

_ZN5draco13DecoderBuffer6DecodeImEEbPT_.exit.thread: ; preds = %8
  %14 = load ptr, ptr %0, align 8, !tbaa !14
  %15 = getelementptr inbounds i8, ptr %14, i64 %12
  %16 = load i64, ptr %15, align 1
  store i64 %16, ptr %2, align 8
  %17 = load i64, ptr %11, align 8, !tbaa !16
  %18 = add i64 %17, 8
  store i64 %18, ptr %11, align 8, !tbaa !16
  br label %21

19:                                               ; preds = %4
  %20 = tail call fastcc noundef zeroext i1 @_ZN5draco12_GLOBAL__N_120DecodeVarintUnsignedImEEbiPT_PNS_13DecoderBufferE(i32 noundef 1, ptr noundef %2, ptr noundef nonnull %0)
  br i1 %20, label %21, label %_ZN5draco13DecoderBuffer6DecodeImEEbPT_.exit

21:                                               ; preds = %_ZN5draco13DecoderBuffer6DecodeImEEbPT_.exit.thread, %19, %3
  %22 = getelementptr inbounds nuw i8, ptr %0, i64 48
  store i8 1, ptr %22, align 8, !tbaa !3
  %23 = getelementptr inbounds nuw i8, ptr %0, i64 24
  %24 = load ptr, ptr %0, align 8, !tbaa !14
  %25 = getelementptr inbounds nuw i8, ptr %0, i64 16
  %26 = load i64, ptr %25, align 8, !tbaa !16
  %27 = getelementptr inbounds i8, ptr %24, i64 %26
  %28 = getelementptr inbounds nuw i8, ptr %0, i64 8
  %29 = load i64, ptr %28, align 8, !tbaa !15
  %30 = getelementptr inbounds nuw i8, ptr %0, i64 40
  store i64 0, ptr %30, align 8, !tbaa !17
  store ptr %27, ptr %23, align 8, !tbaa !18
  %31 = getelementptr inbounds i8, ptr %24, i64 %29
  %32 = getelementptr inbounds nuw i8, ptr %0, i64 32
  store ptr %31, ptr %32, align 8, !tbaa !19
  br label %_ZN5draco13DecoderBuffer6DecodeImEEbPT_.exit

_ZN5draco13DecoderBuffer6DecodeImEEbPT_.exit:     ; preds = %8, %19, %21
  %.0 = phi i1 [ true, %21 ], [ false, %19 ], [ false, %8 ]
  ret i1 %.0
}